target datalayout = "e-m:e-p270:32:32-p271:32:32-p272:64:64-i64:64-i128:128-f80:128-n8:16:32:64-S128"
target triple = "x86_64-pc-linux-gnu"

%struct.KangarooTwelve_Instance = type { %struct.KeccakWidth1600_12rounds_SpongeInstanceStruct, [4 x i8], %struct.KeccakWidth1600_12rounds_SpongeInstanceStruct, i64, i64, i32, i32 }
%struct.KeccakWidth1600_12rounds_SpongeInstanceStruct = type { [200 x i8], i32, i32, i32 }

; Function Attrs: nounwind uwtable
define dso_local i32 @KangarooTwelve_Initialize(ptr noundef %0, i64 noundef %1) #0 {
  %3 = alloca ptr, align 8
  %4 = alloca i64, align 8
  store ptr %0, ptr %3, align 8
  store i64 %1, ptr %4, align 8
  %5 = load i64, ptr %4, align 8
  %6 = load ptr, ptr %3, align 8
  %7 = getelementptr inbounds nuw %struct.KangarooTwelve_Instance, ptr %6, i32 0, i32 3
  store i64 %5, ptr %7, align 8
  %8 = load ptr, ptr %3, align 8
  %9 = getelementptr inbounds nuw %struct.KangarooTwelve_Instance, ptr %8, i32 0, i32 5
  store i32 0, ptr %9, align 8
  %10 = load ptr, ptr %3, align 8
  %11 = getelementptr inbounds nuw %struct.KangarooTwelve_Instance, ptr %10, i32 0, i32 4
  store i64 0, ptr %11, align 8
  %12 = load ptr, ptr %3, align 8
  %13 = getelementptr inbounds nuw %struct.KangarooTwelve_Instance, ptr %12, i32 0, i32 6
  store i32 1, ptr %13, align 4
  %14 = load ptr, ptr %3, align 8
  %15 = getelementptr inbounds nuw %struct.KangarooTwelve_Instance, ptr %14, i32 0, i32 2
  %16 = call i32 @KeccakWidth1600_12rounds_SpongeInitialize(ptr noundef %15, i32 noundef 1344, i32 noundef 256)
  ret i32 %16
}

; Function Attrs: nounwind uwtable
define dso_local i32 @KangarooTwelve(ptr noundef %0, i64 noundef %1, ptr noundef %2, i64 noundef %3, ptr noundef %4, i64 noundef %5) #0 {
  %7 = alloca i32, align 4
  %8 = alloca ptr, align 8
  %9 = alloca i64, align 8
  %10 = alloca ptr, align 8
  %11 = alloca i64, align 8
  %12 = alloca ptr, align 8
  %13 = alloca i64, align 8
  %14 = alloca %struct.KangarooTwelve_Instance, align 8
  %15 = alloca i32, align 4
  store ptr %0, ptr %8, align 8
  store i64 %1, ptr %9, align 8
  store ptr %2, ptr %10, align 8
  store i64 %3, ptr %11, align 8
  store ptr %4, ptr %12, align 8
  store i64 %5, ptr %13, align 8
  call void @llvm.lifetime.start.p0(i64 456, ptr %14) #3
  %16 = load i64, ptr %11, align 8
  %17 = icmp eq i64 %16, 0
  br i1 %17, label %18, label %19

18:                                               ; preds = %6
  store i32 1, ptr %7, align 4
  store i32 1, ptr %15, align 4
  br label %35

19:                                               ; preds = %6
  %20 = load i64, ptr %11, align 8
  %21 = call i32 @KangarooTwelve_Initialize(ptr noundef %14, i64 noundef %20)
  %22 = icmp ne i32 %21, 0
  br i1 %22, label %23, label %24

23:                                               ; preds = %19
  store i32 1, ptr %7, align 4
  store i32 1, ptr %15, align 4
  br label %35

24:                                               ; preds = %19
  %25 = load ptr, ptr %8, align 8
  %26 = load i64, ptr %9, align 8
  %27 = call i32 @KangarooTwelve_Update(ptr noundef %14, ptr noundef %25, i64 noundef %26)
  %28 = icmp ne i32 %27, 0
  br i1 %28, label %29, label %30

29:                                               ; preds = %24
  store i32 1, ptr %7, align 4
  store i32 1, ptr %15, align 4
  br label %35

30:                                               ; preds = %24
  %31 = load ptr, ptr %10, align 8
  %32 = load ptr, ptr %12, align 8
  %33 = load i64, ptr %13, align 8
  %34 = call i32 @KangarooTwelve_Final(ptr noundef %14, ptr noundef %31, ptr noundef %32, i64 noundef %33)
  store i32 %34, ptr %7, align 4
  store i32 1, ptr %15, align 4
  br label %35

35:                                               ; preds = %30, %29, %23, %18
  call void @llvm.lifetime.end.p0(i64 456, ptr %14) #3
  %36 = load i32, ptr %7, align 4
  ret i32 %36
}