; Function Attrs: nounwind uwtable
define dso_local i32 @KangarooTwelve(ptr noundef %0, i64 noundef %1, ptr noundef %2, i64 noundef %3, ptr noundef %4, i64 noundef %5) local_unnamed_addr #0 {
  %7 = alloca %struct.KangarooTwelve_Instance, align 8
  call void @llvm.lifetime.start.p0(i64 456, ptr nonnull %7) #4
  %8 = icmp eq i64 %3, 0
  br i1 %8, label %20, label %9

9:                                                ; preds = %6
  %10 = getelementptr inbounds nuw i8, ptr %7, i64 432
  store i64 %3, ptr %10, align 8
  %11 = getelementptr inbounds nuw i8, ptr %7, i64 448
  store i32 0, ptr %11, align 8
  %12 = getelementptr inbounds nuw i8, ptr %7, i64 440
  store i64 0, ptr %12, align 8
  %13 = getelementptr inbounds nuw i8, ptr %7, i64 452
  store i32 1, ptr %13, align 4
  %14 = getelementptr inbounds nuw i8, ptr %7, i64 216
  %15 = call i32 @KeccakWidth1600_12rounds_SpongeInitialize(ptr noundef nonnull %14, i32 noundef 1344, i32 noundef 256) #4
  %.not = icmp eq i32 %15, 0
  br i1 %.not, label %16, label %20

16:                                               ; preds = %9
  %17 = call i32 @KangarooTwelve_Update(ptr noundef nonnull %7, ptr noundef %0, i64 noundef %1)
  %.not8 = icmp eq i32 %17, 0
  br i1 %.not8, label %18, label %20

18:                                               ; preds = %16
  %19 = call i32 @KangarooTwelve_Final(ptr noundef nonnull %7, ptr noundef %2, ptr noundef %4, i64 noundef %5)
  br label %20

20:                                               ; preds = %16, %9, %6, %18
  %.0 = phi i32 [ %19, %18 ], [ 1, %6 ], [ 1, %9 ], [ 1, %16 ]
  call void @llvm.lifetime.end.p0(i64 456, ptr nonnull %7) #4
  ret i32 %.0
}